EXPORTS
	_ZN10QBtAddress25convertToSymbianBtDevAddrEv @ 1 NONAME
	_ZN10QBtAddress27getAddressFromReversedArrayERK10QByteArray @ 2 NONAME
	_ZN10QBtAddressC1ERK10QByteArray @ 3 NONAME
	_ZN10QBtAddressC1ERK10TBTDevAddr @ 4 NONAME
	_ZN10QBtAddressC1ERK7QString @ 5 NONAME
	_ZN10QBtAddressC1Ev @ 6 NONAME
	_ZN10QBtAddressC2ERK10QByteArray @ 7 NONAME
	_ZN10QBtAddressC2ERK10TBTDevAddr @ 8 NONAME
	_ZN10QBtAddressC2ERK7QString @ 9 NONAME
	_ZN10QBtAddressC2Ev @ 10 NONAME
	_ZN10QBtAddressD1Ev @ 11 NONAME
	_ZN10QBtAddressD2Ev @ 12 NONAME
	_ZN10QBtAddresseqERKS_ @ 13 NONAME
	_ZN10QBtAddressltERKS_ @ 14 NONAME
	_ZN10QBtAddressneERKS_ @ 15 NONAME
	_ZN10QBtService11addProtocolEN12QBtConstants15ServiceProtocolE @ 16 NONAME
	_ZN10QBtService12setProtocolsERK5QListIN12QBtConstants15ServiceProtocolEE @ 17 NONAME
	_ZN10QBtService14removeProtocolEN12QBtConstants15ServiceProtocolE @ 18 NONAME
	_ZN10QBtService14setDescriptionERK7QString @ 19 NONAME
	_ZN10QBtService7setNameERK7QString @ 20 NONAME
	_ZN10QBtService7setPortEj @ 21 NONAME
	_ZN10QBtService8setClassEN12QBtConstants12ServiceClassE @ 22 NONAME
	_ZN10QBtService9setHandleEj @ 23 NONAME
	_ZN10QBtServiceC1Ev @ 24 NONAME
	_ZN10QBtServiceC2Ev @ 25 NONAME
	_ZN14QBtLocalDevice10setVisibleEb @ 26 NONAME
	_ZN14QBtLocalDevice11qt_metacallEN11QMetaObject4CallEiPPv @ 27 NONAME
	_ZN14QBtLocalDevice11qt_metacastEPKc @ 28 NONAME
	_ZN14QBtLocalDevice12addNewDeviceERK9QBtDevice @ 29 NONAME
	_ZN14QBtLocalDevice12deleteDeviceERK10QBtAddress @ 30 NONAME
	_ZN14QBtLocalDevice12deleteDeviceERK9QBtDevice @ 31 NONAME
	_ZN14QBtLocalDevice12unpairDeviceERK10QBtAddress @ 32 NONAME
	_ZN14QBtLocalDevice12unpairDeviceERK9QBtDevice @ 33 NONAME
	_ZN14QBtLocalDevice14getDeviceClassEv @ 34 NONAME
	_ZN14QBtLocalDevice14setDeviceClassEN9QBtDevice11DeviceMajorE @ 35 NONAME
	_ZN14QBtLocalDevice16staticMetaObjectE @ 36 NONAME DATA 16
	_ZN14QBtLocalDevice18getLocalDeviceNameEv @ 37 NONAME
	_ZN14QBtLocalDevice18setLocalDeviceNameERK7QString @ 38 NONAME
	_ZN14QBtLocalDevice19getStaticMetaObjectEv @ 39 NONAME
	_ZN14QBtLocalDevice20askUserTurnOnBtPowerEv @ 40 NONAME
	_ZN14QBtLocalDevice20isBluetoothSupportedEv @ 41 NONAME
	_ZN14QBtLocalDevice21getLocalDeviceAddressEv @ 42 NONAME
	_ZN14QBtLocalDevice22getBluetoothPowerStateEv @ 43 NONAME
	_ZN14QBtLocalDevice22setBluetoothPowerStateEb @ 44 NONAME
	_ZN14QBtLocalDevice9isVisibleEv @ 45 NONAME
	_ZN19QBtDeviceDiscoverer11qt_metacallEN11QMetaObject4CallEiPPv @ 46 NONAME
	_ZN19QBtDeviceDiscoverer11qt_metacastEPKc @ 47 NONAME
	_ZN19QBtDeviceDiscoverer13stopDiscoveryEv @ 48 NONAME
	_ZN19QBtDeviceDiscoverer14newDeviceFoundERK9QBtDevice @ 49 NONAME
	_ZN19QBtDeviceDiscoverer14startDiscoveryEv @ 50 NONAME
	_ZN19QBtDeviceDiscoverer16discoveryStartedEv @ 51 NONAME
	_ZN19QBtDeviceDiscoverer16discoveryStoppedEv @ 52 NONAME
	_ZN19QBtDeviceDiscoverer16staticMetaObjectE @ 53 NONAME DATA 16
	_ZN19QBtDeviceDiscoverer19getStaticMetaObjectEv @ 54 NONAME
	_ZN19QBtDeviceDiscoverer5errorENS_21DeviceDiscoveryErrorsE @ 55 NONAME
	_ZN19QBtDeviceDiscovererC1EP7QObject @ 56 NONAME
	_ZN19QBtDeviceDiscovererC2EP7QObject @ 57 NONAME
	_ZN19QBtDeviceDiscovererD0Ev @ 58 NONAME
	_ZN19QBtDeviceDiscovererD1Ev @ 59 NONAME
	_ZN19QBtDeviceDiscovererD2Ev @ 60 NONAME
	_ZN19QBtSerialPortClient10disconnectEv @ 61 NONAME
	_ZN19QBtSerialPortClient11isConnectedEv @ 62 NONAME
	_ZN19QBtSerialPortClient11qt_metacallEN11QMetaObject4CallEiPPv @ 63 NONAME
	_ZN19QBtSerialPortClient11qt_metacastEPKc @ 64 NONAME
	_ZN19QBtSerialPortClient12dataReceivedERK7QString @ 65 NONAME
	_ZN19QBtSerialPortClient16staticMetaObjectE @ 66 NONAME DATA 16
	_ZN19QBtSerialPortClient17connectedToServerEv @ 67 NONAME
	_ZN19QBtSerialPortClient19getStaticMetaObjectEv @ 68 NONAME
	_ZN19QBtSerialPortClient21connectionResetByPeerEv @ 69 NONAME
	_ZN19QBtSerialPortClient22disconnectedFromServerEv @ 70 NONAME
	_ZN19QBtSerialPortClient5errorENS_9ErrorCodeE @ 71 NONAME
	_ZN19QBtSerialPortClient7connectERK9QBtDeviceRK10QBtService @ 72 NONAME
	_ZN19QBtSerialPortClient8dataSentEv @ 73 NONAME
	_ZN19QBtSerialPortClient8sendDataERK10QByteArray @ 74 NONAME
	_ZN19QBtSerialPortClient8sendDataERK7QString @ 75 NONAME
	_ZN19QBtSerialPortClientC1EP7QObject @ 76 NONAME
	_ZN19QBtSerialPortClientC2EP7QObject @ 77 NONAME
	_ZN19QBtSerialPortClientD0Ev @ 78 NONAME
	_ZN19QBtSerialPortClientD1Ev @ 79 NONAME
	_ZN19QBtSerialPortClientD2Ev @ 80 NONAME
	_ZN19QBtSerialPortServer10stopServerEv @ 81 NONAME
	_ZN19QBtSerialPortServer11isConnectedEv @ 82 NONAME
	_ZN19QBtSerialPortServer11qt_metacallEN11QMetaObject4CallEiPPv @ 83 NONAME
	_ZN19QBtSerialPortServer11qt_metacastEPKc @ 84 NONAME
	_ZN19QBtSerialPortServer11startServerERK7QString @ 85 NONAME
	_ZN19QBtSerialPortServer12dataReceivedERK7QString @ 86 NONAME
	_ZN19QBtSerialPortServer13serverStartedEv @ 87 NONAME
	_ZN19QBtSerialPortServer13serverStoppedEv @ 88 NONAME
	_ZN19QBtSerialPortServer15clientConnectedERK10QBtAddress @ 89 NONAME
	_ZN19QBtSerialPortServer16staticMetaObjectE @ 90 NONAME DATA 16
	_ZN19QBtSerialPortServer18clientDisconnectedEv @ 91 NONAME
	_ZN19QBtSerialPortServer19getStaticMetaObjectEv @ 92 NONAME
	_ZN19QBtSerialPortServer19setConnectionStatusEb @ 93 NONAME
	_ZN19QBtSerialPortServer22setTransmittingServiceERK10QBtService @ 94 NONAME
	_ZN19QBtSerialPortServer22stopAdvertisingServiceEv @ 95 NONAME
	_ZN19QBtSerialPortServer23startAdvertisingServiceERK10QBtService @ 96 NONAME
	_ZN19QBtSerialPortServer26getTransmittingServiceInfoEv @ 97 NONAME
	_ZN19QBtSerialPortServer5errorENS_9ErrorCodeE @ 98 NONAME
	_ZN19QBtSerialPortServer8dataSentEv @ 99 NONAME
	_ZN19QBtSerialPortServer8sendDataERK7QString @ 100 NONAME
	_ZN19QBtSerialPortServerC1EP7QObject @ 101 NONAME
	_ZN19QBtSerialPortServerC2EP7QObject @ 102 NONAME
	_ZN19QBtSerialPortServerD0Ev @ 103 NONAME
	_ZN19QBtSerialPortServerD1Ev @ 104 NONAME
	_ZN19QBtSerialPortServerD2Ev @ 105 NONAME
	_ZN20QBtServiceAdvertiser11qt_metacallEN11QMetaObject4CallEiPPv @ 106 NONAME
	_ZN20QBtServiceAdvertiser11qt_metacastEPKc @ 107 NONAME
	_ZN20QBtServiceAdvertiser15stopAdvertisingEv @ 108 NONAME
	_ZN20QBtServiceAdvertiser16startAdvertisingERK10QBtService @ 109 NONAME
	_ZN20QBtServiceAdvertiser16staticMetaObjectE @ 110 NONAME DATA 16
	_ZN20QBtServiceAdvertiser18advertisingStartedERK10QBtService @ 111 NONAME
	_ZN20QBtServiceAdvertiser18advertisingStoppedEv @ 112 NONAME
	_ZN20QBtServiceAdvertiser18updateAvailabilityEb @ 113 NONAME
	_ZN20QBtServiceAdvertiser19getStaticMetaObjectEv @ 114 NONAME
	_ZN20QBtServiceAdvertiser5errorENS_10ErrorCodesE @ 115 NONAME
	_ZN20QBtServiceAdvertiserC1EP7QObject @ 116 NONAME
	_ZN20QBtServiceAdvertiserC2EP7QObject @ 117 NONAME
	_ZN20QBtServiceAdvertiserD0Ev @ 118 NONAME
	_ZN20QBtServiceAdvertiserD1Ev @ 119 NONAME
	_ZN20QBtServiceAdvertiserD2Ev @ 120 NONAME
	_ZN20QBtServiceDiscoverer11qt_metacallEN11QMetaObject4CallEiPPv @ 121 NONAME
	_ZN20QBtServiceDiscoverer11qt_metacastEPKc @ 122 NONAME
	_ZN20QBtServiceDiscoverer13stopDiscoveryEv @ 123 NONAME
	_ZN20QBtServiceDiscoverer14startDiscoveryERK9QBtDevice @ 124 NONAME
	_ZN20QBtServiceDiscoverer14startDiscoveryERK9QBtDeviceN12QBtConstants12ServiceClassE @ 125 NONAME
	_ZN20QBtServiceDiscoverer14startDiscoveryERK9QBtDeviceN12QBtConstants15ServiceProtocolE @ 126 NONAME
	_ZN20QBtServiceDiscoverer15newServiceFoundERK9QBtDeviceRK10QBtService @ 127 NONAME
	_ZN20QBtServiceDiscoverer16discoveryStartedEv @ 128 NONAME
	_ZN20QBtServiceDiscoverer16discoveryStoppedEv @ 129 NONAME
	_ZN20QBtServiceDiscoverer16staticMetaObjectE @ 130 NONAME DATA 16
	_ZN20QBtServiceDiscoverer19getInquiredServicesEv @ 131 NONAME
	_ZN20QBtServiceDiscoverer19getStaticMetaObjectEv @ 132 NONAME
	_ZN20QBtServiceDiscoverer5errorENS_21ServiceDiscoveryErrorE @ 133 NONAME
	_ZN20QBtServiceDiscovererC1EP7QObject @ 134 NONAME
	_ZN20QBtServiceDiscovererC2EP7QObject @ 135 NONAME
	_ZN20QBtServiceDiscovererD0Ev @ 136 NONAME
	_ZN20QBtServiceDiscovererD1Ev @ 137 NONAME
	_ZN20QBtServiceDiscovererD2Ev @ 138 NONAME
	_ZN23QBtObjectExchangeClient10disconnectEv @ 139 NONAME
	_ZN23QBtObjectExchangeClient10objectSentEv @ 140 NONAME
	_ZN23QBtObjectExchangeClient11qt_metacallEN11QMetaObject4CallEiPPv @ 141 NONAME
	_ZN23QBtObjectExchangeClient11qt_metacastEPKc @ 142 NONAME
	_ZN23QBtObjectExchangeClient12dataReceivedERK10QByteArray @ 143 NONAME
	_ZN23QBtObjectExchangeClient12fileReceivedERK7QString @ 144 NONAME
	_ZN23QBtObjectExchangeClient13getByteBufferERK7QString @ 145 NONAME
	_ZN23QBtObjectExchangeClient13putByteBufferERK10QByteArrayRK7QString @ 146 NONAME
	_ZN23QBtObjectExchangeClient13remotePathSetERK7QString @ 147 NONAME
	_ZN23QBtObjectExchangeClient15connectToServerERK9QBtDeviceRK10QBtService @ 148 NONAME
	_ZN23QBtObjectExchangeClient16staticMetaObjectE @ 149 NONAME DATA 16
	_ZN23QBtObjectExchangeClient17connectedToServerEv @ 150 NONAME
	_ZN23QBtObjectExchangeClient19getStaticMetaObjectEv @ 151 NONAME
	_ZN23QBtObjectExchangeClient22disconnectedFromServerEv @ 152 NONAME
	_ZN23QBtObjectExchangeClient5abortEv @ 153 NONAME
	_ZN23QBtObjectExchangeClient5errorENS_9ErrorCodeE @ 154 NONAME
	_ZN23QBtObjectExchangeClient7getFileERK7QStringS2_ @ 155 NONAME
	_ZN23QBtObjectExchangeClient7putFileERK7QString @ 156 NONAME
	_ZN23QBtObjectExchangeClient7setPathERK7QString @ 157 NONAME
	_ZN23QBtObjectExchangeClientC1EP7QObject @ 158 NONAME
	_ZN23QBtObjectExchangeClientC2EP7QObject @ 159 NONAME
	_ZN23QBtObjectExchangeClientD0Ev @ 160 NONAME
	_ZN23QBtObjectExchangeClientD1Ev @ 161 NONAME
	_ZN23QBtObjectExchangeClientD2Ev @ 162 NONAME
	_ZN23QBtObjectExchangeServer10stopServerEv @ 163 NONAME
	_ZN23QBtObjectExchangeServer11isConnectedEv @ 164 NONAME
	_ZN23QBtObjectExchangeServer11qt_metacallEN11QMetaObject4CallEiPPv @ 165 NONAME
	_ZN23QBtObjectExchangeServer11qt_metacastEPKc @ 166 NONAME
	_ZN23QBtObjectExchangeServer11startServerERK7QString @ 167 NONAME
	_ZN23QBtObjectExchangeServer13serverStartedEv @ 168 NONAME
	_ZN23QBtObjectExchangeServer13serverStoppedEv @ 169 NONAME
	_ZN23QBtObjectExchangeServer16receivingStartedEv @ 170 NONAME
	_ZN23QBtObjectExchangeServer16receivingStoppedERK7QString @ 171 NONAME
	_ZN23QBtObjectExchangeServer16staticMetaObjectE @ 172 NONAME DATA 16
	_ZN23QBtObjectExchangeServer19getStaticMetaObjectEv @ 173 NONAME
	_ZN23QBtObjectExchangeServer19receivingObjectInfoEii @ 174 NONAME
	_ZN23QBtObjectExchangeServer19transmittingStartedERK7QString @ 175 NONAME
	_ZN23QBtObjectExchangeServer19transmittingStoppedERK7QString @ 176 NONAME
	_ZN23QBtObjectExchangeServer20transmittingRejectedEv @ 177 NONAME
	_ZN23QBtObjectExchangeServer22setTransmittingServiceERK10QBtService @ 178 NONAME
	_ZN23QBtObjectExchangeServer22stopAdvertisingServiceEv @ 179 NONAME
	_ZN23QBtObjectExchangeServer22transmittingObjectInfoEii @ 180 NONAME
	_ZN23QBtObjectExchangeServer23startAdvertisingServiceERK10QBtService @ 181 NONAME
	_ZN23QBtObjectExchangeServer25clientAbortedTransmittionEv @ 182 NONAME
	_ZN23QBtObjectExchangeServer26getTransmittingServiceInfoEv @ 183 NONAME
	_ZN23QBtObjectExchangeServer5errorENS_9ErrorCodeE @ 184 NONAME
	_ZN23QBtObjectExchangeServerC1EP7QObject @ 185 NONAME
	_ZN23QBtObjectExchangeServerC2EP7QObject @ 186 NONAME
	_ZN23QBtObjectExchangeServerD0Ev @ 187 NONAME
	_ZN23QBtObjectExchangeServerD1Ev @ 188 NONAME
	_ZN23QBtObjectExchangeServerD2Ev @ 189 NONAME
	_ZN25QBtSingleDeviceSelectorUI11devSelectedEP15QListWidgetItem @ 190 NONAME
	_ZN25QBtSingleDeviceSelectorUI11exitPressedEv @ 191 NONAME
	_ZN25QBtSingleDeviceSelectorUI11qt_metacallEN11QMetaObject4CallEiPPv @ 192 NONAME
	_ZN25QBtSingleDeviceSelectorUI11qt_metacastEPKc @ 193 NONAME
	_ZN25QBtSingleDeviceSelectorUI12userCanceledEv @ 194 NONAME
	_ZN25QBtSingleDeviceSelectorUI13selectPressedEv @ 195 NONAME
	_ZN25QBtSingleDeviceSelectorUI16discoveryStartedEv @ 196 NONAME
	_ZN25QBtSingleDeviceSelectorUI16staticMetaObjectE @ 197 NONAME DATA 16
	_ZN25QBtSingleDeviceSelectorUI18discoveryCompletedERK9QBtDevice @ 198 NONAME
	_ZN25QBtSingleDeviceSelectorUI18populateDeviceListERK9QBtDevice @ 199 NONAME
	_ZN25QBtSingleDeviceSelectorUI19getStaticMetaObjectEv @ 200 NONAME
	_ZN25QBtSingleDeviceSelectorUI4showEv @ 201 NONAME
	_ZN25QBtSingleDeviceSelectorUIC1EP7QWidget @ 202 NONAME
	_ZN25QBtSingleDeviceSelectorUIC2EP7QWidget @ 203 NONAME
	_ZN25QBtSingleDeviceSelectorUID0Ev @ 204 NONAME
	_ZN25QBtSingleDeviceSelectorUID1Ev @ 205 NONAME
	_ZN25QBtSingleDeviceSelectorUID2Ev @ 206 NONAME
	_ZN9QBtDevice10setAddressERK10QBtAddress @ 207 NONAME
	_ZN9QBtDevice13addNewServiceERK10QBtService @ 208 NONAME
	_ZN9QBtDevice20setSupportedServicesERK5QListI10QBtServiceE @ 209 NONAME
	_ZN9QBtDevice7setNameERK7QString @ 210 NONAME
	_ZN9QBtDevice7setTypeENS_11DeviceMajorE @ 211 NONAME
	_ZN9QBtDeviceC1ERK7QStringRK10QBtAddressNS_11DeviceMajorE @ 212 NONAME
	_ZN9QBtDeviceC1ERKS_ @ 213 NONAME
	_ZN9QBtDeviceC1Ev @ 214 NONAME
	_ZN9QBtDeviceC2ERK7QStringRK10QBtAddressNS_11DeviceMajorE @ 215 NONAME
	_ZN9QBtDeviceC2ERKS_ @ 216 NONAME
	_ZN9QBtDeviceC2Ev @ 217 NONAME
	_ZN9QBtDeviceD1Ev @ 218 NONAME
	_ZN9QBtDeviceD2Ev @ 219 NONAME
	_ZNK10QBtAddress11toByteArrayEv @ 220 NONAME
	_ZNK10QBtAddress19toReversedByteArrayEv @ 221 NONAME
	_ZNK10QBtAddress7isValidEv @ 222 NONAME
	_ZNK10QBtAddress8toStringEv @ 223 NONAME
	_ZNK10QBtService12getProtocolsEv @ 224 NONAME
	_ZNK10QBtService14getDescriptionEv @ 225 NONAME
	_ZNK10QBtService7getNameEv @ 226 NONAME
	_ZNK10QBtService7getPortEv @ 227 NONAME
	_ZNK10QBtService8getClassEv @ 228 NONAME
	_ZNK10QBtService9getHandleEv @ 229 NONAME
	_ZNK14QBtLocalDevice10metaObjectEv @ 230 NONAME
	_ZNK19QBtDeviceDiscoverer10metaObjectEv @ 231 NONAME
	_ZNK19QBtDeviceDiscoverer18getInquiredDevicesEv @ 232 NONAME
	_ZNK19QBtDeviceDiscoverer6isBusyEv @ 233 NONAME
	_ZNK19QBtSerialPortClient10metaObjectEv @ 234 NONAME
	_ZNK19QBtSerialPortServer10metaObjectEv @ 235 NONAME
	_ZNK20QBtServiceAdvertiser10metaObjectEv @ 236 NONAME
	_ZNK20QBtServiceDiscoverer10metaObjectEv @ 237 NONAME
	_ZNK20QBtServiceDiscoverer15getTargetDeviceEv @ 238 NONAME
	_ZNK20QBtServiceDiscoverer6isBusyEv @ 239 NONAME
	_ZNK23QBtObjectExchangeClient10metaObjectEv @ 240 NONAME
	_ZNK23QBtObjectExchangeClient11isConnectedEv @ 241 NONAME
	_ZNK23QBtObjectExchangeClient6isBusyEv @ 242 NONAME
	_ZNK23QBtObjectExchangeServer10metaObjectEv @ 243 NONAME
	_ZNK25QBtSingleDeviceSelectorUI10metaObjectEv @ 244 NONAME
	_ZNK9QBtDevice10getAddressEv @ 245 NONAME
	_ZNK9QBtDevice15getTypeAsStringEv @ 246 NONAME
	_ZNK9QBtDevice18serviceListUpdatedEv @ 247 NONAME
	_ZNK9QBtDevice20getSupportedServicesEv @ 248 NONAME
	_ZNK9QBtDevice7getNameEv @ 249 NONAME
	_ZNK9QBtDevice7getTypeEv @ 250 NONAME
	_ZTI14QBtLocalDevice @ 251 NONAME
	_ZTI19QBtDeviceDiscoverer @ 252 NONAME
	_ZTI19QBtSerialPortClient @ 253 NONAME
	_ZTI19QBtSerialPortServer @ 254 NONAME
	_ZTI20QBtServiceAdvertiser @ 255 NONAME
	_ZTI20QBtServiceDiscoverer @ 256 NONAME
	_ZTI23QBtObjectExchangeClient @ 257 NONAME
	_ZTI23QBtObjectExchangeServer @ 258 NONAME
	_ZTI25QBtSingleDeviceSelectorUI @ 259 NONAME
	_ZTI26QBtDeviceDiscovererPrivate @ 260 NONAME
	_ZTI26QBtSerialPortClientPrivate @ 261 NONAME
	_ZTI26QBtSerialPortServerPrivate @ 262 NONAME
	_ZTI27QBtServiceAdvertiserPrivate @ 263 NONAME
	_ZTI27QBtServiceDiscovererPrivate @ 264 NONAME
	_ZTI30QBtObjectExchangeClientPrivate @ 265 NONAME
	_ZTI30QBtObjectExchangeServerPrivate @ 266 NONAME
	_ZTV14QBtLocalDevice @ 267 NONAME
	_ZTV19QBtDeviceDiscoverer @ 268 NONAME
	_ZTV19QBtSerialPortClient @ 269 NONAME
	_ZTV19QBtSerialPortServer @ 270 NONAME
	_ZTV20QBtServiceAdvertiser @ 271 NONAME
	_ZTV20QBtServiceDiscoverer @ 272 NONAME
	_ZTV23QBtObjectExchangeClient @ 273 NONAME
	_ZTV23QBtObjectExchangeServer @ 274 NONAME
	_ZTV25QBtSingleDeviceSelectorUI @ 275 NONAME
	_ZTV26QBtDeviceDiscovererPrivate @ 276 NONAME
	_ZTV26QBtSerialPortClientPrivate @ 277 NONAME
	_ZTV26QBtSerialPortServerPrivate @ 278 NONAME
	_ZTV27QBtServiceAdvertiserPrivate @ 279 NONAME
	_ZTV27QBtServiceDiscovererPrivate @ 280 NONAME
	_ZTV30QBtObjectExchangeClientPrivate @ 281 NONAME
	_ZTV30QBtObjectExchangeServerPrivate @ 282 NONAME
	_ZThn8_N25QBtSingleDeviceSelectorUID0Ev @ 283 NONAME
	_ZThn8_N25QBtSingleDeviceSelectorUID1Ev @ 284 NONAME

